(dp1
S'output'
p2
S'The "end" tag is unmatched, please check if you have a starting "block" tag'
p3
sS'layer'
p4
S"'layout.html'"
p5
sS'code'
p6
S'<!--[if HTML5]><![endif]-->\n<!DOCTYPE html>\n<!-- paulirish.com/2008/conditional-stylesheets-vs-css-hacks-answer-neither/ -->\n<!--[if lt IE 7]><html class="ie ie6 ie-lte9 ie-lte8 ie-lte7 no-js" lang="{{=T.accepted_language or \'en\'}}"> <![endif]-->\n<!--[if IE 7]><html class="ie ie7 ie-lte9 ie-lte8 ie-lte7 no-js" lang="{{=T.accepted_language or \'en\'}}"> <![endif]-->\n<!--[if IE 8]><html class="ie ie8 ie-lte9 ie-lte8 no-js" lang="{{=T.accepted_language or \'en\'}}"> <![endif]-->\n<!--[if IE 9]><html class="ie9 ie-lte9 no-js" lang="{{=T.accepted_language or \'en\'}}"> <![endif]-->\n<!--[if (gt IE 9)|!(IE)]><!--> <html class="no-js" lang="{{=T.accepted_language or \'en\'}}"> <!--<![endif]-->\n<head>\n<title>{{=response.title or request.application}}</title>\n  <!--[if !HTML5]>\n      <meta http-equiv="X-UA-Compatible" content="IE=edge{{=not request.is_local and \',chrome=1\' or \'\'}}">\n  <![endif]-->\n  <!-- www.phpied.com/conditional-comments-block-downloads/ -->\n  <!-- Always force latest IE rendering engine\n       (even in intranet) & Chrome Frame\n       Remove this if you use the .htaccess -->\n\t   \n  <meta charset="utf-8" />\n\n  <!-- http://dev.w3.org/html5/markup/meta.name.html -->\n  <meta name="application-name" content="{{=request.application}}" />\n\n  <!-- Speaking of Google, don\'t forget to set your site up:\n       http://google.com/webmasters -->\n  <meta name="google-site-verification" content="" />\n\n  <!--  Mobile Viewport Fix\n        j.mp/mobileviewport & davidbcalhoun.com/2010/viewport-metatag\n        device-width: Occupy full width of the screen in its current orientation\n        initial-scale = 1.0 retains dimensions instead of zooming out if page height > device height\n        user-scalable = yes allows the user to zoom in -->\n  <meta name="viewport" content="width=device-width, initial-scale=1.0" />\n\n  <link rel="shortcut icon" href="{{=URL(\'static\',\'images/favicon.ico\')}}" type="image/x-icon">\n  <link rel="apple-touch-icon" href="{{=URL(\'static\',\'images/favicon.png\')}}">\n\n  <!-- All JavaScript at the bottom, except for Modernizr which enables\n       HTML5 elements & feature detects -->\n  <script src="{{=URL(\'static\',\'js/modernizr.custom.js\')}}"></script>\n\n  <!-- include stylesheets -->\n  {{\n  response.files.insert(0,URL(\'static\',\'css/web2py.css\'))\n  response.files.insert(1,URL(\'static\',\'css/bootstrap.min.css\'))\n  response.files.insert(2,URL(\'static\',\'css/bootstrap-responsive.min.css\'))\n  response.files.insert(3,URL(\'static\',\'css/web2py_bootstrap.css\'))\n  }}\n\n  {{include \'web2py_ajax.html\'}}\n\n  {{\n  # using sidebars need to know what sidebar you want to use\n  left_sidebar_enabled = globals().get(\'left_sidebar_enabled\',False)\n  right_sidebar_enabled = globals().get(\'right_sidebar_enabled\',False)\n  middle_columns = {0:\'span12\',1:\'span9\',2:\'span6\'}[\n    (left_sidebar_enabled and 1 or 0)+(right_sidebar_enabled and 1 or 0)]\n  }}\n\n  <!-- uncomment here to load jquery-ui\n       <link rel="stylesheet" href="http://ajax.googleapis.com/ajax/libs/jqueryui/1.10.3/themes/ui-lightness/jquery-ui.css" type="text/css" media="all" />\n       <script src="http://ajax.googleapis.com/ajax/libs/jqueryui/1.10.3/jquery-ui.min.js" type="text/javascript"></script>\n       uncomment to load jquery-ui //-->\n  <noscript><link href="{{=URL(\'static\', \'css/web2py_bootstrap_nojs.css\')}}" rel="stylesheet" type="text/css" /></noscript>\n  {{block head}}{{end}}\n</head>\n<style>\nul\n{\nlist-style-type:none;\nmargin:0;\npadding:0;\noverflow:hidden;\n}\nli\n{\nfloat:left;\n}\na\n{\ndisplay:block;\nwidth:60px;\n}\n</style>\n<body>\n  <!-- Navbar ================================================== -->\n  <div class="navbar navbar-inverse">\n      <div>\n          <div>\n              <h1>\n                  {{=T("OUR AMAZING GAME")}}\n              </h1>\n          </div>\n        <ul class="pull-right">\n            <li><a href="/attendance/default/index">Home</a></li>\n            <li><a href="/attendance/default/help">Help</a></li>\n            <li><a href="/attendance/default/logout">Logout</a></li>\n        </ul>\n      </div>\n  </div><!--/top navbar -->\n\n  <div class="container">\n\n    <section id="main" class="main row">\n        {{if left_sidebar_enabled:}}\n        <div class="span3 left-sidebar">\n            {{block left_sidebar}}\n            <h3>Left Sidebar</h3>\n            <p></p>\n            {{end}}\n        </div>\n        {{pass}}\n\n        <div class="{{=middle_columns}}">\n            \n            {{include}}\n            {{end}}\n        </div>\n\n\n        {{if right_sidebar_enabled:}}\n        <div class="span3">\n            {{block right_sidebar}}\n            <h3>Right Sidebar</h3>\n            <p></p>\n            {{end}}\n        </div>\n        {{pass}}\n    </section><!--/main-->\n\n    <!-- Footer ================================================== -->\n    <div class="row">\n        <footer class="footer span12" id="footer">\n            <div class="footer-content">\n                {{block footer}} <!-- this is default footer -->\n                <div id="title" class="pull-right">\n                    {{=T(\'A TEAM SPLUNKE PRODUCTION\')}}\n                </div>\n                {{end}}\n            </div>\n        </footer>\n    </div>\n\n  </div> <!-- /container -->\n\n      <!-- The javascript =============================================\n       (Placed at the end of the document so the pages load faster) -->\n  <script src="{{=URL(\'static\',\'js/bootstrap.min.js\')}}"></script>\n  <script src="{{=URL(\'static\',\'js/web2py_bootstrap.js\')}}"></script>\n  <!--[if lt IE 7 ]>\n      <script src="{{=URL(\'static\',\'js/dd_belatedpng.js\')}}"></script>\n      <script> DD_belatedPNG.fix(\'img, .png_bg\'); //fix any <img> or .png_bg background-images </script>\n      <![endif]-->\n\n    <script src="{{=URL(\'static\',\'js/share.js\',vars=dict(static=URL(\'static\',\'images\')))}}"></script>\n</body>\n</html>\n'
p7
sS'snapshot'
p8
(dp9
sS'traceback'
p10
S'None\n'
p11
s.